target datalayout = "e-m:e-p270:32:32-p271:32:32-p272:64:64-i64:64-i128:128-f80:128-n8:16:32:64-S128"
target triple = "x86_64-pc-linux-gnu"

%"class.std::__cxx11::basic_string" = type { %"struct.std::__cxx11::basic_string<char>::_Alloc_hider", i64, %union.anon }
%"struct.std::__cxx11::basic_string<char>::_Alloc_hider" = type { ptr }
%union.anon = type { i64, [8 x i8] }
%"class.std::__cxx11::_List_base.38" = type { %"struct.std::__cxx11::_List_base<std::__cxx11::basic_string<char>, std::allocator<std::__cxx11::basic_string<char>>>::_List_impl" }
%"struct.std::__cxx11::_List_base<std::__cxx11::basic_string<char>, std::allocator<std::__cxx11::basic_string<char>>>::_List_impl" = type { %"struct.std::__detail::_List_node_header" }
%"struct.std::__detail::_List_node_header" = type { %"struct.std::__detail::_List_node_base", i64 }
%"struct.std::__detail::_List_node_base" = type { ptr, ptr }
%"class.std::allocator" = type { i8 }

@_ZTIN3nix10UsageErrorE = linkonce_odr constant { ptr, ptr, ptr } { ptr getelementptr inbounds (ptr, ptr @_ZTVN10__cxxabiv120__si_class_type_infoE, i64 2), ptr @_ZTSN3nix10UsageErrorE, ptr @_ZTIN3nix5ErrorE }, comdat, align 8
@.str.94 = private unnamed_addr constant [13 x i8] c"unknown flag\00", align 1
@.str.144 = private unnamed_addr constant [22 x i8] c"no arguments expected\00", align 1

; Function Attrs: mustprogress nounwind uwtable
define linkonce_odr noundef zeroext i1 @_ZNKSt7__cxx114listINS_12basic_stringIcSt11char_traitsIcESaIcEEESaIS5_EE5emptyEv(ptr noundef nonnull align 8 dereferenceable(24) %0) #2 comdat align 2 {
  %2 = alloca ptr, align 8
  store ptr %0, ptr %2, align 8
  %3 = load ptr, ptr %2, align 8
  %4 = getelementptr inbounds %"class.std::__cxx11::_List_base.38", ptr %3, i32 0, i32 0
  %5 = getelementptr inbounds %"struct.std::__cxx11::_List_base<std::__cxx11::basic_string<char>, std::allocator<std::__cxx11::basic_string<char>>>::_List_impl", ptr %4, i32 0, i32 0
  %6 = getelementptr inbounds %"struct.std::__detail::_List_node_base", ptr %5, i32 0, i32 0
  %7 = load ptr, ptr %6, align 8
  %8 = getelementptr inbounds %"class.std::__cxx11::_List_base.38", ptr %3, i32 0, i32 0
  %9 = getelementptr inbounds %"struct.std::__cxx11::_List_base<std::__cxx11::basic_string<char>, std::allocator<std::__cxx11::basic_string<char>>>::_List_impl", ptr %8, i32 0, i32 0
  %10 = icmp eq ptr %7, %9
  ret i1 %10
}

; Function Attrs: mustprogress uwtable
define internal void @_ZN9nix_storeL6opInitENSt7__cxx114listINS0_12basic_stringIcSt11char_traitsIcESaIcEEESaIS6_EEES8_(ptr noundef %0, ptr noundef %1) #5 personality ptr @__gxx_personality_v0 {
  %3 = alloca ptr, align 8
  %4 = alloca ptr, align 8
  %5 = alloca %"class.std::__cxx11::basic_string", align 8
  %6 = alloca %"class.std::allocator", align 1
  %7 = alloca ptr, align 8
  %8 = alloca i32, align 4
  %9 = alloca i1, align 1
  %10 = alloca %"class.std::__cxx11::basic_string", align 8
  %11 = alloca %"class.std::allocator", align 1
  %12 = alloca i1, align 1
  store ptr %0, ptr %3, align 8
  store ptr %1, ptr %4, align 8
  %13 = call noundef zeroext i1 @_ZNKSt7__cxx114listINS_12basic_stringIcSt11char_traitsIcESaIcEEESaIS5_EE5emptyEv(ptr noundef nonnull align 8 dereferenceable(24) %0) #1
  br i1 %13, label %30, label %14

14:                                               ; preds = %2
  store i1 true, ptr %9, align 1
  %15 = call ptr @__cxa_allocate_exception(i64 376) #1
  call void @_ZNSaIcEC1Ev(ptr noundef nonnull align 1 dereferenceable(1) %6) #1
  invoke void @_ZNSt7__cxx1112basic_stringIcSt11char_traitsIcESaIcEEC2IS3_EEPKcRKS3_(ptr noundef nonnull align 8 dereferenceable(32) %5, ptr noundef @.str.94, ptr noundef nonnull align 1 dereferenceable(1) %6)
          to label %16 unwind label %18

16:                                               ; preds = %14
  invoke void @_ZN3nix10UsageErrorCI2NS_9BaseErrorEIJEEERKNSt7__cxx1112basic_stringIcSt11char_traitsIcESaIcEEEDpRKT_(ptr noundef nonnull align 8 dereferenceable(376) %15, ptr noundef nonnull align 8 dereferenceable(32) %5)
          to label %17 unwind label %22

17:                                               ; preds = %16
  store i1 false, ptr %9, align 1
  invoke void @__cxa_throw(ptr %15, ptr @_ZTIN3nix10UsageErrorE, ptr @_ZN3nix10UsageErrorD2Ev) #19
          to label %54 unwind label %22

18:                                               ; preds = %14
  %19 = landingpad { ptr, i32 }
          cleanup
  %20 = extractvalue { ptr, i32 } %19, 0
  store ptr %20, ptr %7, align 8
  %21 = extractvalue { ptr, i32 } %19, 1
  store i32 %21, ptr %8, align 4
  br label %26

22:                                               ; preds = %17, %16
  %23 = landingpad { ptr, i32 }
          cleanup
  %24 = extractvalue { ptr, i32 } %23, 0
  store ptr %24, ptr %7, align 8
  %25 = extractvalue { ptr, i32 } %23, 1
  store i32 %25, ptr %8, align 4
  call void @_ZNSt7__cxx1112basic_stringIcSt11char_traitsIcESaIcEED2Ev(ptr noundef nonnull align 8 dereferenceable(32) %5) #1
  br label %26

26:                                               ; preds = %22, %18
  call void @_ZNSaIcED1Ev(ptr noundef nonnull align 1 dereferenceable(1) %6) #1
  %27 = load i1, ptr %9, align 1
  br i1 %27, label %28, label %29

28:                                               ; preds = %26
  call void @__cxa_free_exception(ptr %15) #1
  br label %29

29:                                               ; preds = %28, %26
  br label %49

30:                                               ; preds = %2
  %31 = call noundef zeroext i1 @_ZNKSt7__cxx114listINS_12basic_stringIcSt11char_traitsIcESaIcEEESaIS5_EE5emptyEv(ptr noundef nonnull align 8 dereferenceable(24) %1) #1
  br i1 %31, label %48, label %32

32:                                               ; preds = %30
  store i1 true, ptr %12, align 1
  %33 = call ptr @__cxa_allocate_exception(i64 376) #1
  call void @_ZNSaIcEC1Ev(ptr noundef nonnull align 1 dereferenceable(1) %11) #1
  invoke void @_ZNSt7__cxx1112basic_stringIcSt11char_traitsIcESaIcEEC2IS3_EEPKcRKS3_(ptr noundef nonnull align 8 dereferenceable(32) %10, ptr noundef @.str.144, ptr noundef nonnull align 1 dereferenceable(1) %11)
          to label %34 unwind label %36

34:                                               ; preds = %32
  invoke void @_ZN3nix10UsageErrorCI2NS_9BaseErrorEIJEEERKNSt7__cxx1112basic_stringIcSt11char_traitsIcESaIcEEEDpRKT_(ptr noundef nonnull align 8 dereferenceable(376) %33, ptr noundef nonnull align 8 dereferenceable(32) %10)
          to label %35 unwind label %40

35:                                               ; preds = %34
  store i1 false, ptr %12, align 1
  invoke void @__cxa_throw(ptr %33, ptr @_ZTIN3nix10UsageErrorE, ptr @_ZN3nix10UsageErrorD2Ev) #19
          to label %54 unwind label %40

36:                                               ; preds = %32
  %37 = landingpad { ptr, i32 }
          cleanup
  %38 = extractvalue { ptr, i32 } %37, 0
  store ptr %38, ptr %7, align 8
  %39 = extractvalue { ptr, i32 } %37, 1
  store i32 %39, ptr %8, align 4
  br label %44

40:                                               ; preds = %35, %34
  %41 = landingpad { ptr, i32 }
          cleanup
  %42 = extractvalue { ptr, i32 } %41, 0
  store ptr %42, ptr %7, align 8
  %43 = extractvalue { ptr, i32 } %41, 1
  store i32 %43, ptr %8, align 4
  call void @_ZNSt7__cxx1112basic_stringIcSt11char_traitsIcESaIcEED2Ev(ptr noundef nonnull align 8 dereferenceable(32) %10) #1
  br label %44

44:                                               ; preds = %40, %36
  call void @_ZNSaIcED1Ev(ptr noundef nonnull align 1 dereferenceable(1) %11) #1
  %45 = load i1, ptr %12, align 1
  br i1 %45, label %46, label %47

46:                                               ; preds = %44
  call void @__cxa_free_exception(ptr %33) #1
  br label %47

47:                                               ; preds = %46, %44
  br label %49

48:                                               ; preds = %30
  ret void

49:                                               ; preds = %47, %29
  %50 = load ptr, ptr %7, align 8
  %51 = load i32, ptr %8, align 4
  %52 = insertvalue { ptr, i32 } poison, ptr %50, 0
  %53 = insertvalue { ptr, i32 } %52, i32 %51, 1
  resume { ptr, i32 } %53

54:                                               ; preds = %35, %17
  unreachable
}