; Function Attrs: mustprogress uwtable
define internal void @_ZN9nix_storeL6opInitENSt7__cxx114listINS0_12basic_stringIcSt11char_traitsIcESaIcEEESaIS6_EEES8_(ptr noundef readonly %0, ptr noundef readonly %1) #5 personality ptr @__gxx_personality_v0 {
  %3 = alloca %"class.std::__cxx11::basic_string", align 8
  %4 = alloca %"class.std::allocator", align 1
  %5 = alloca %"class.std::__cxx11::basic_string", align 8
  %6 = alloca %"class.std::allocator", align 1
  %7 = load ptr, ptr %0, align 8
  %8 = icmp eq ptr %7, %0
  br i1 %8, label %16, label %9

9:                                                ; preds = %2
  %10 = tail call ptr @__cxa_allocate_exception(i64 376) #26
  call void @_ZNSaIcEC1Ev(ptr noundef nonnull align 1 dereferenceable(1) %4) #26
  invoke void @_ZNSt7__cxx1112basic_stringIcSt11char_traitsIcESaIcEEC2IS3_EEPKcRKS3_(ptr noundef nonnull align 8 dereferenceable(32) %3, ptr noundef nonnull @.str.94, ptr noundef nonnull align 1 dereferenceable(1) %4)
          to label %11 unwind label %.thread

11:                                               ; preds = %9
  invoke void @_ZN3nix10UsageErrorCI2NS_9BaseErrorEIJEEERKNSt7__cxx1112basic_stringIcSt11char_traitsIcESaIcEEEDpRKT_(ptr noundef nonnull align 8 dereferenceable(376) %10, ptr noundef nonnull align 8 dereferenceable(32) %3)
          to label %12 unwind label %14

12:                                               ; preds = %11
  invoke void @__cxa_throw(ptr nonnull %10, ptr nonnull @_ZTIN3nix10UsageErrorE, ptr nonnull @_ZN3nix10UsageErrorD2Ev) #27
          to label %28 unwind label %14

.thread:                                          ; preds = %9
  %13 = landingpad { ptr, i32 }
          cleanup
  br label %.sink.split.sink.split

14:                                               ; preds = %11, %12
  %.03 = phi i1 [ false, %12 ], [ true, %11 ]
  %15 = landingpad { ptr, i32 }
          cleanup
  call void @_ZNSt7__cxx1112basic_stringIcSt11char_traitsIcESaIcEED2Ev(ptr noundef nonnull align 8 dereferenceable(32) %3) #26
  call void @_ZNSaIcED1Ev(ptr noundef nonnull align 1 dereferenceable(1) %4) #26
  br i1 %.03, label %.sink.split, label %27

16:                                               ; preds = %2
  %17 = load ptr, ptr %1, align 8
  %18 = icmp eq ptr %17, %1
  br i1 %18, label %26, label %19

19:                                               ; preds = %16
  %20 = tail call ptr @__cxa_allocate_exception(i64 376) #26
  call void @_ZNSaIcEC1Ev(ptr noundef nonnull align 1 dereferenceable(1) %6) #26
  invoke void @_ZNSt7__cxx1112basic_stringIcSt11char_traitsIcESaIcEEC2IS3_EEPKcRKS3_(ptr noundef nonnull align 8 dereferenceable(32) %5, ptr noundef nonnull @.str.144, ptr noundef nonnull align 1 dereferenceable(1) %6)
          to label %21 unwind label %.thread17

21:                                               ; preds = %19
  invoke void @_ZN3nix10UsageErrorCI2NS_9BaseErrorEIJEEERKNSt7__cxx1112basic_stringIcSt11char_traitsIcESaIcEEEDpRKT_(ptr noundef nonnull align 8 dereferenceable(376) %20, ptr noundef nonnull align 8 dereferenceable(32) %5)
          to label %22 unwind label %24

22:                                               ; preds = %21
  invoke void @__cxa_throw(ptr nonnull %20, ptr nonnull @_ZTIN3nix10UsageErrorE, ptr nonnull @_ZN3nix10UsageErrorD2Ev) #27
          to label %28 unwind label %24

.thread17:                                        ; preds = %19
  %23 = landingpad { ptr, i32 }
          cleanup
  br label %.sink.split.sink.split

24:                                               ; preds = %21, %22
  %.0 = phi i1 [ false, %22 ], [ true, %21 ]
  %25 = landingpad { ptr, i32 }
          cleanup
  call void @_ZNSt7__cxx1112basic_stringIcSt11char_traitsIcESaIcEED2Ev(ptr noundef nonnull align 8 dereferenceable(32) %5) #26
  call void @_ZNSaIcED1Ev(ptr noundef nonnull align 1 dereferenceable(1) %6) #26
  br i1 %.0, label %.sink.split, label %27

26:                                               ; preds = %16
  ret void

.sink.split.sink.split:                           ; preds = %.thread, %.thread17
  %.sink21 = phi ptr [ %6, %.thread17 ], [ %4, %.thread ]
  %.sink.ph = phi ptr [ %20, %.thread17 ], [ %10, %.thread ]
  %.pn11.pn.ph.ph = phi { ptr, i32 } [ %23, %.thread17 ], [ %13, %.thread ]
  call void @_ZNSaIcED1Ev(ptr noundef nonnull align 1 dereferenceable(1) %.sink21) #26
  br label %.sink.split

.sink.split:                                      ; preds = %.sink.split.sink.split, %24, %14
  %.sink = phi ptr [ %10, %14 ], [ %20, %24 ], [ %.sink.ph, %.sink.split.sink.split ]
  %.pn11.pn.ph = phi { ptr, i32 } [ %15, %14 ], [ %25, %24 ], [ %.pn11.pn.ph.ph, %.sink.split.sink.split ]
  call void @__cxa_free_exception(ptr %.sink) #26
  br label %27

27:                                               ; preds = %.sink.split, %24, %14
  %.pn11.pn = phi { ptr, i32 } [ %25, %24 ], [ %15, %14 ], [ %.pn11.pn.ph, %.sink.split ]
  resume { ptr, i32 } %.pn11.pn

28:                                               ; preds = %22, %12
  unreachable
}